target datalayout = "e-m:e-p270:32:32-p271:32:32-p272:64:64-i64:64-i128:128-f80:128-n8:16:32:64-S128"
target triple = "x86_64-pc-linux-gnu"

; Function Attrs: inlinehint nounwind uwtable
define internal ptr @ossl_check_const_X509_sk_type(ptr noundef %0) #2 {
  %2 = alloca ptr, align 8
  store ptr %0, ptr %2, align 8, !tbaa !335
  %3 = load ptr, ptr %2, align 8, !tbaa !335
  ret ptr %3
}

; Function Attrs: nounwind uwtable
define i32 @ssl_security_cert_chain(ptr noundef %0, ptr noundef %1, ptr noundef %2, i32 noundef %3) #1 {
  %5 = alloca i32, align 4
  %6 = alloca ptr, align 8
  %7 = alloca ptr, align 8
  %8 = alloca ptr, align 8
  %9 = alloca i32, align 4
  %10 = alloca i32, align 4
  %11 = alloca i32, align 4
  %12 = alloca i32, align 4
  %13 = alloca i32, align 4
  store ptr %0, ptr %6, align 8, !tbaa !25
  store ptr %1, ptr %7, align 8, !tbaa !335
  store ptr %2, ptr %8, align 8, !tbaa !334
  store i32 %3, ptr %9, align 4, !tbaa !128
  call void @llvm.lifetime.start.p0(i64 4, ptr %10) #8
  call void @llvm.lifetime.start.p0(i64 4, ptr %11) #8
  call void @llvm.lifetime.start.p0(i64 4, ptr %12) #8
  %14 = load ptr, ptr %8, align 8, !tbaa !334
  %15 = icmp eq ptr %14, null
  br i1 %15, label %16, label %24

16:                                               ; preds = %4
  %17 = load ptr, ptr %7, align 8, !tbaa !335
  %18 = call ptr @ossl_check_const_X509_sk_type(ptr noundef %17)
  %19 = call ptr @OPENSSL_sk_value(ptr noundef %18, i32 noundef 0)
  store ptr %19, ptr %8, align 8, !tbaa !334
  %20 = load ptr, ptr %8, align 8, !tbaa !334
  %21 = icmp eq ptr %20, null
  br i1 %21, label %22, label %23

22:                                               ; preds = %16
  store i32 786691, ptr %5, align 4
  store i32 1, ptr %13, align 4
  br label %60

23:                                               ; preds = %16
  store i32 1, ptr %11, align 4, !tbaa !128
  br label %25

24:                                               ; preds = %4
  store i32 0, ptr %11, align 4, !tbaa !128
  br label %25

25:                                               ; preds = %24, %23
  %26 = load ptr, ptr %6, align 8, !tbaa !25
  %27 = load ptr, ptr %8, align 8, !tbaa !334
  %28 = load i32, ptr %9, align 4, !tbaa !128
  %29 = call i32 @ssl_security_cert(ptr noundef %26, ptr noundef null, ptr noundef %27, i32 noundef %28, i32 noundef 1)
  store i32 %29, ptr %10, align 4, !tbaa !128
  %30 = load i32, ptr %10, align 4, !tbaa !128
  %31 = icmp ne i32 %30, 1
  br i1 %31, label %32, label %34

32:                                               ; preds = %25
  %33 = load i32, ptr %10, align 4, !tbaa !128
  store i32 %33, ptr %5, align 4
  store i32 1, ptr %13, align 4
  br label %60

34:                                               ; preds = %25
  %35 = load i32, ptr %11, align 4, !tbaa !128
  store i32 %35, ptr %12, align 4, !tbaa !128
  br label %36

36:                                               ; preds = %56, %34
  %37 = load i32, ptr %12, align 4, !tbaa !128
  %38 = load ptr, ptr %7, align 8, !tbaa !335
  %39 = call ptr @ossl_check_const_X509_sk_type(ptr noundef %38)
  %40 = call i32 @OPENSSL_sk_num(ptr noundef %39)
  %41 = icmp slt i32 %37, %40
  br i1 %41, label %42, label %59

42:                                               ; preds = %36
  %43 = load ptr, ptr %7, align 8, !tbaa !335
  %44 = call ptr @ossl_check_const_X509_sk_type(ptr noundef %43)
  %45 = load i32, ptr %12, align 4, !tbaa !128
  %46 = call ptr @OPENSSL_sk_value(ptr noundef %44, i32 noundef %45)
  store ptr %46, ptr %8, align 8, !tbaa !334
  %47 = load ptr, ptr %6, align 8, !tbaa !25
  %48 = load ptr, ptr %8, align 8, !tbaa !334
  %49 = load i32, ptr %9, align 4, !tbaa !128
  %50 = call i32 @ssl_security_cert(ptr noundef %47, ptr noundef null, ptr noundef %48, i32 noundef %49, i32 noundef 0)
  store i32 %50, ptr %10, align 4, !tbaa !128
  %51 = load i32, ptr %10, align 4, !tbaa !128
  %52 = icmp ne i32 %51, 1
  br i1 %52, label %53, label %55

53:                                               ; preds = %42
  %54 = load i32, ptr %10, align 4, !tbaa !128
  store i32 %54, ptr %5, align 4
  store i32 1, ptr %13, align 4
  br label %60

55:                                               ; preds = %42
  br label %56

56:                                               ; preds = %55
  %57 = load i32, ptr %12, align 4, !tbaa !128
  %58 = add nsw i32 %57, 1
  store i32 %58, ptr %12, align 4, !tbaa !128
  br label %36, !llvm.loop !362

59:                                               ; preds = %36
  store i32 1, ptr %5, align 4
  store i32 1, ptr %13, align 4
  br label %60

60:                                               ; preds = %59, %53, %32, %22
  call void @llvm.lifetime.end.p0(i64 4, ptr %12) #8
  call void @llvm.lifetime.end.p0(i64 4, ptr %11) #8
  call void @llvm.lifetime.end.p0(i64 4, ptr %10) #8
  %61 = load i32, ptr %5, align 4
  ret i32 %61
}