; Function Attrs: nounwind uwtable
define range(i32 1, 786692) i32 @ssl_security_cert_chain(ptr noundef %0, ptr noundef %1, ptr noundef %2, i32 noundef %3) local_unnamed_addr #2 {
  %5 = icmp eq ptr %2, null
  br i1 %5, label %6, label %9

6:                                                ; preds = %4
  %7 = tail call ptr @OPENSSL_sk_value(ptr noundef %1, i32 noundef 0) #14
  %8 = icmp eq ptr %7, null
  br i1 %8, label %.loopexit, label %9

9:                                                ; preds = %4, %6
  %.021 = phi ptr [ %7, %6 ], [ %2, %4 ]
  %.019 = phi i32 [ 1, %6 ], [ 0, %4 ]
  %10 = tail call i32 @ssl_security_cert(ptr noundef %0, ptr noundef null, ptr noundef nonnull %.021, i32 noundef %3, i32 noundef 1)
  %.not = icmp eq i32 %10, 1
  br i1 %.not, label %.preheader, label %.loopexit

.preheader:                                       ; preds = %9
  %11 = tail call i32 @OPENSSL_sk_num(ptr noundef %1) #14
  %12 = icmp slt i32 %.019, %11
  br i1 %12, label %.lr.ph, label %.loopexit

13:                                               ; preds = %.lr.ph
  %14 = add nuw nsw i32 %.027, 1
  %15 = tail call i32 @OPENSSL_sk_num(ptr noundef %1) #14
  %16 = icmp slt i32 %14, %15
  br i1 %16, label %.lr.ph, label %.loopexit, !llvm.loop !302

.lr.ph:                                           ; preds = %.preheader, %13
  %.027 = phi i32 [ %14, %13 ], [ %.019, %.preheader ]
  %17 = tail call ptr @OPENSSL_sk_value(ptr noundef %1, i32 noundef %.027) #14
  %18 = tail call i32 @ssl_security_cert(ptr noundef %0, ptr noundef null, ptr noundef %17, i32 noundef %3, i32 noundef 0)
  %.not26 = icmp eq i32 %18, 1
  br i1 %.not26, label %13, label %.loopexit

.loopexit:                                        ; preds = %.lr.ph, %13, %.preheader, %9, %6
  %.020 = phi i32 [ 786691, %6 ], [ %10, %9 ], [ 1, %.preheader ], [ %18, %.lr.ph ], [ 1, %13 ]
  ret i32 %.020
}